; Function Attrs: mustprogress uwtable
define internal void @_ZNK12_GLOBAL__N_118BuiltinGitRegistry21append_all_port_namesERSt6vectorINSt7__cxx1112basic_stringIcSt11char_traitsIcESaIcEEESaIS7_EE(ptr dead_on_unwind noalias writable sret(%"struct.vcpkg::ExpectedT.15") align 8 %0, ptr nocapture noundef nonnull readonly align 8 dereferenceable(64) %1, ptr noundef nonnull align 8 dereferenceable(24) %2) unnamed_addr #2 align 2 {
  %4 = alloca %"struct.vcpkg::IgnoreErrors", align 8
  %5 = getelementptr inbounds i8, ptr %1, i64 56
  %6 = load ptr, ptr %5, align 8
  %7 = tail call noundef nonnull align 8 dereferenceable(8) ptr @_ZNK5vcpkg10VcpkgPaths14get_filesystemEv(ptr noundef nonnull align 8 dereferenceable(400) %6)
  %8 = load ptr, ptr %5, align 8
  %9 = getelementptr inbounds i8, ptr %8, i64 96
  %10 = getelementptr inbounds i8, ptr %4, i64 8
  %11 = tail call noundef nonnull align 8 dereferenceable(8) ptr @_ZNSt3_V215system_categoryEv() #32
  store i64 0, ptr %4, align 8
  store ptr %11, ptr %10, align 8
  %12 = call noundef nonnull align 8 dereferenceable(16) ptr @_ZN5vcpkg12IgnoreErrorscvRSt10error_codeEv(ptr noundef nonnull align 8 dereferenceable(16) %4)
  %13 = call noundef zeroext i1 @_ZNK5vcpkg18ReadOnlyFilesystem6existsERKNS_4PathERSt10error_code(ptr noundef nonnull align 8 dereferenceable(8) %7, ptr noundef nonnull align 8 dereferenceable(32) %9, ptr noundef nonnull align 8 dereferenceable(16) %12)
  br i1 %13, label %14, label %17

14:                                               ; preds = %3
  %15 = load ptr, ptr %5, align 8
  %16 = getelementptr inbounds i8, ptr %15, i64 96
  call fastcc void @_ZN12_GLOBAL__N_142load_all_port_names_from_registry_versionsERSt6vectorINSt7__cxx1112basic_stringIcSt11char_traitsIcESaIcEEESaIS6_EERKN5vcpkg18ReadOnlyFilesystemERKNSA_4PathE(ptr dead_on_unwind noalias writable align 8 %0, ptr noundef nonnull align 8 dereferenceable(24) %2, ptr noundef nonnull align 8 dereferenceable(8) %7, ptr noundef nonnull align 8 dereferenceable(32) %16)
  br label %19

17:                                               ; preds = %3
  %18 = getelementptr inbounds i8, ptr %1, i64 48
  %.val = load ptr, ptr %18, align 8
  call void @_ZNK12_GLOBAL__N_120BuiltinFilesRegistry21append_all_port_namesERSt6vectorINSt7__cxx1112basic_stringIcSt11char_traitsIcESaIcEEESaIS7_EE(ptr dead_on_unwind writable sret(%"struct.vcpkg::ExpectedT.15") align 8 %0, ptr noundef nonnull align 8 dereferenceable(104) %.val, ptr noundef nonnull align 8 dereferenceable(24) %2)
  br label %19

19:                                               ; preds = %17, %14
  ret void
}